target datalayout = "e-m:e-p270:32:32-p271:32:32-p272:64:64-i64:64-i128:128-f80:128-n8:16:32:64-S128"
target triple = "x86_64-pc-linux-gnu"

%struct._packet_info = type { ptr, ptr, i32, i32, %struct.nstime_t, %struct.nstime_t, %struct.nstime_t, i8, ptr, ptr, ptr, ptr, %struct._address, %struct._address, %struct._address, %struct._address, %struct._address, %struct._address, i32, ptr, i8, [3 x i8], %struct.anon, i32, i32, i32, i32, ptr, i8, ptr, ptr, i16, i16, i32, i32, i16, i32, i32, ptr, ptr, ptr, i8, i8, i16, i16, i16, i32, i16, i16, ptr, ptr, ptr, ptr, ptr, i32, i32 }
%struct.nstime_t = type { i64, i32 }
%struct._address = type { i32, i32, ptr, ptr }
%struct.anon = type { i8, [3 x i8] }

@.str.262 = private unnamed_addr constant [10 x i8] c"sercosiii\00", align 1
@.str.347 = private unnamed_addr constant [1 x i8] zeroinitializer, align 1
@heuristic_siii_dissection_enabled = internal global i8 1, align 1
@bDissector_Called_Once_Before = internal global i8 0, align 1
@.str.350 = private unnamed_addr constant [21 x i8] c"openSAFETY/SercosIII\00", align 1

; Function Attrs: null_pointer_is_valid sspstrong uwtable
define internal zeroext i1 @dissect_opensafety_siii(ptr noundef %0, ptr noundef %1, ptr noundef %2, ptr noundef %3) #0 {
  %5 = alloca i1, align 1
  %6 = alloca ptr, align 8
  %7 = alloca ptr, align 8
  %8 = alloca ptr, align 8
  %9 = alloca ptr, align 8
  %10 = alloca i8, align 1
  %11 = alloca i8, align 1
  %12 = alloca i8, align 1
  %13 = alloca i32, align 4
  store ptr %0, ptr %6, align 8
  store ptr %1, ptr %7, align 8
  store ptr %2, ptr %8, align 8
  store ptr %3, ptr %9, align 8
  call void @llvm.lifetime.start.p0(i64 1, ptr %10) #12
  store i8 0, ptr %10, align 1
  call void @llvm.lifetime.start.p0(i64 1, ptr %11) #12
  store i8 0, ptr %11, align 1
  call void @llvm.lifetime.start.p0(i64 1, ptr %12) #12
  %14 = load i8, ptr @heuristic_siii_dissection_enabled, align 1, !range !6, !noundef !7
  %15 = trunc i8 %14 to i1
  br i1 %15, label %17, label %16

16:                                               ; preds = %4
  store i1 false, ptr %5, align 1
  store i32 1, ptr %13, align 4
  br label %58

17:                                               ; preds = %4
  %18 = load i8, ptr @bDissector_Called_Once_Before, align 1, !range !6, !noundef !7
  %19 = trunc i8 %18 to i1
  %20 = zext i1 %19 to i32
  %21 = icmp eq i32 %20, 0
  br i1 %21, label %22, label %55

22:                                               ; preds = %17
  %23 = load ptr, ptr %7, align 8
  %24 = getelementptr inbounds nuw %struct._packet_info, ptr %23, i32 0, i32 25
  %25 = load i32, ptr %24, align 8
  %26 = icmp eq i32 %25, 8755
  %27 = zext i1 %26 to i8
  store i8 %27, ptr %11, align 1
  store i8 1, ptr @bDissector_Called_Once_Before, align 1
  %28 = load ptr, ptr %6, align 8
  %29 = call zeroext i8 @tvb_get_uint8(ptr noundef %28, i32 noundef 0)
  %30 = zext i8 %29 to i32
  %31 = shl i32 %30, 1
  %32 = trunc i32 %31 to i8
  store i8 %32, ptr %12, align 1
  %33 = load i8, ptr %11, align 1, !range !6, !noundef !7
  %34 = trunc i8 %33 to i1
  br i1 %34, label %40, label %35

35:                                               ; preds = %22
  %36 = load i8, ptr %12, align 1
  %37 = zext i8 %36 to i32
  %38 = and i32 %37, 64
  %39 = icmp eq i32 %38, 64
  br i1 %39, label %40, label %54

40:                                               ; preds = %35, %22
  %41 = load i8, ptr %11, align 1, !range !6, !noundef !7
  %42 = trunc i8 %41 to i1
  %43 = select i1 %42, ptr @.str.347, ptr @.str.262
  %44 = load ptr, ptr %6, align 8
  %45 = load ptr, ptr %7, align 8
  %46 = load ptr, ptr %8, align 8
  %47 = load i8, ptr %11, align 1, !range !6, !noundef !7
  %48 = trunc i8 %47 to i1
  %49 = select i1 %48, i32 2, i32 1
  %50 = trunc i32 %49 to i8
  %51 = call i32 @opensafety_package_dissector(ptr noundef @.str.350, ptr noundef %43, i1 noundef zeroext false, i1 noundef zeroext false, i8 noundef zeroext 0, ptr noundef %44, ptr noundef %45, ptr noundef %46, i8 noundef zeroext %50)
  %52 = icmp ne i32 %51, 0
  %53 = zext i1 %52 to i8
  store i8 %53, ptr %10, align 1
  br label %54

54:                                               ; preds = %40, %35
  store i8 0, ptr @bDissector_Called_Once_Before, align 1
  br label %55

55:                                               ; preds = %54, %17
  %56 = load i8, ptr %10, align 1, !range !6, !noundef !7
  %57 = trunc i8 %56 to i1
  store i1 %57, ptr %5, align 1
  store i32 1, ptr %13, align 4
  br label %58

58:                                               ; preds = %55, %16
  call void @llvm.lifetime.end.p0(i64 1, ptr %12) #12
  call void @llvm.lifetime.end.p0(i64 1, ptr %11) #12
  call void @llvm.lifetime.end.p0(i64 1, ptr %10) #12
  %59 = load i1, ptr %5, align 1
  ret i1 %59
}

; Function Attrs: null_pointer_is_valid sspstrong uwtable
define internal zeroext i1 @dissect_opensafety_siii_heur(ptr noundef %0, ptr noundef %1, ptr noundef %2, ptr noundef %3) #0 {
  %5 = alloca ptr, align 8
  %6 = alloca ptr, align 8
  %7 = alloca ptr, align 8
  %8 = alloca ptr, align 8
  store ptr %0, ptr %5, align 8
  store ptr %1, ptr %6, align 8
  store ptr %2, ptr %7, align 8
  store ptr %3, ptr %8, align 8
  %9 = load ptr, ptr %5, align 8
  %10 = load ptr, ptr %6, align 8
  %11 = load ptr, ptr %7, align 8
  %12 = load ptr, ptr %8, align 8
  %13 = call zeroext i1 @dissect_opensafety_siii(ptr noundef %9, ptr noundef %10, ptr noundef %11, ptr noundef %12)
  ret i1 %13
}