; Function Attrs: null_pointer_is_valid sspstrong uwtable
define internal zeroext i1 @dissect_opensafety_siii_heur(ptr noundef %0, ptr noundef %1, ptr noundef %2, ptr readnone captures(none) %3) #0 {
  %5 = load i8, ptr @heuristic_siii_dissection_enabled, align 1, !range !6, !noundef !7
  %6 = trunc nuw i8 %5 to i1
  br i1 %6, label %7, label %dissect_opensafety_siii.exit

7:                                                ; preds = %4
  %.b11.i = load i1, ptr @bDissector_Called_Once_Before, align 1
  br i1 %.b11.i, label %dissect_opensafety_siii.exit, label %8

8:                                                ; preds = %7
  %9 = getelementptr inbounds nuw i8, ptr %1, i64 288
  %10 = load i32, ptr %9, align 8
  %11 = icmp eq i32 %10, 8755
  store i1 true, ptr @bDissector_Called_Once_Before, align 1
  %12 = tail call zeroext i8 @tvb_get_uint8(ptr noundef %0, i32 noundef 0)
  br i1 %11, label %15, label %13

13:                                               ; preds = %8
  %14 = and i8 %12, 32
  %.not.i = icmp eq i8 %14, 0
  br i1 %.not.i, label %20, label %15

15:                                               ; preds = %13, %8
  %16 = phi i8 [ 1, %13 ], [ 2, %8 ]
  %17 = phi ptr [ @.str.262, %13 ], [ @.str.347, %8 ]
  %18 = tail call fastcc i32 @opensafety_package_dissector(ptr noundef nonnull @.str.350, ptr noundef nonnull %17, i1 noundef zeroext false, i1 noundef zeroext false, i8 noundef zeroext 0, ptr noundef %0, ptr noundef %1, ptr noundef %2, i8 noundef zeroext %16)
  %19 = trunc nuw i32 %18 to i1
  br label %20

20:                                               ; preds = %15, %13
  %.1.i = phi i1 [ %19, %15 ], [ false, %13 ]
  store i1 false, ptr @bDissector_Called_Once_Before, align 1
  br label %dissect_opensafety_siii.exit

dissect_opensafety_siii.exit:                     ; preds = %4, %7, %20
  %.0.i = phi i1 [ false, %4 ], [ %.1.i, %20 ], [ false, %7 ]
  ret i1 %.0.i
}